; Function Attrs: nofree norecurse nosync nounwind memory(argmem: readwrite) uwtable
define internal void @put_vp8_epel8_v4_c(ptr noundef writeonly captures(none) %0, i64 noundef %1, ptr noundef readonly captures(none) %2, i64 noundef %3, i32 noundef %4, i32 %5, i32 noundef %6) #1 {
  %8 = icmp sgt i32 %4, 0
  br i1 %8, label %.preheader.lr.ph, label %._crit_edge

.preheader.lr.ph:                                 ; preds = %7
  %9 = add nsw i32 %6, -1
  %10 = sext i32 %9 to i64
  %11 = getelementptr inbounds [7 x [6 x i8]], ptr @subpel_filters, i64 0, i64 %10
  %12 = getelementptr inbounds nuw i8, ptr %11, i64 2
  %13 = load i8, ptr %12, align 2, !tbaa !10
  %14 = zext i8 %13 to i32
  %15 = getelementptr inbounds nuw i8, ptr %11, i64 1
  %16 = load i8, ptr %15, align 1, !tbaa !10
  %17 = zext i8 %16 to i32
  %18 = getelementptr inbounds nuw i8, ptr %11, i64 3
  %19 = load i8, ptr %18, align 1, !tbaa !10
  %20 = zext i8 %19 to i32
  %21 = getelementptr inbounds nuw i8, ptr %11, i64 4
  %22 = load i8, ptr %21, align 2, !tbaa !10
  %23 = zext i8 %22 to i32
  %24 = shl nsw i64 %3, 1
  br label %.preheader

.preheader:                                       ; preds = %.preheader.lr.ph, %54
  %.037 = phi i32 [ 0, %.preheader.lr.ph ], [ %56, %54 ]
  %.02936 = phi ptr [ %0, %.preheader.lr.ph ], [ %55, %54 ]
  %.03035 = phi ptr [ %2, %.preheader.lr.ph ], [ %25, %54 ]
  %25 = getelementptr i8, ptr %.03035, i64 %3
  %26 = getelementptr i8, ptr %.03035, i64 %24
  br label %27

27:                                               ; preds = %.preheader, %27
  %indvars.iv = phi i64 [ 0, %.preheader ], [ %indvars.iv.next, %27 ]
  %28 = getelementptr inbounds nuw i8, ptr %.03035, i64 %indvars.iv
  %29 = load i8, ptr %28, align 1, !tbaa !10
  %30 = zext i8 %29 to i32
  %31 = mul nuw nsw i32 %30, %14
  %32 = sub nsw i64 %indvars.iv, %3
  %33 = getelementptr inbounds i8, ptr %.03035, i64 %32
  %34 = load i8, ptr %33, align 1, !tbaa !10
  %35 = zext i8 %34 to i32
  %36 = getelementptr i8, ptr %25, i64 %indvars.iv
  %37 = load i8, ptr %36, align 1, !tbaa !10
  %38 = zext i8 %37 to i32
  %39 = mul nuw nsw i32 %38, %20
  %40 = getelementptr i8, ptr %26, i64 %indvars.iv
  %41 = load i8, ptr %40, align 1, !tbaa !10
  %42 = zext i8 %41 to i32
  %43 = mul nuw nsw i32 %17, %35
  %44 = mul nuw nsw i32 %23, %42
  %45 = add nuw nsw i32 %44, %43
  %46 = add nuw nsw i32 %31, 64
  %47 = add nuw nsw i32 %46, %39
  %48 = sub nsw i32 %47, %45
  %49 = ashr i32 %48, 7
  %50 = sext i32 %49 to i64
  %51 = getelementptr inbounds i8, ptr getelementptr inbounds nuw (i8, ptr @ff_crop_tab, i64 1024), i64 %50
  %52 = load i8, ptr %51, align 1, !tbaa !10
  %53 = getelementptr inbounds nuw i8, ptr %.02936, i64 %indvars.iv
  store i8 %52, ptr %53, align 1, !tbaa !10
  %indvars.iv.next = add nuw nsw i64 %indvars.iv, 1
  %exitcond.not = icmp eq i64 %indvars.iv.next, 8
  br i1 %exitcond.not, label %54, label %27, !llvm.loop !40

54:                                               ; preds = %27
  %55 = getelementptr inbounds i8, ptr %.02936, i64 %1
  %56 = add nuw nsw i32 %.037, 1
  %exitcond39.not = icmp eq i32 %56, %4
  br i1 %exitcond39.not, label %._crit_edge, label %.preheader, !llvm.loop !41

._crit_edge:                                      ; preds = %54, %7
  ret void
}